target datalayout = "e-m:e-p270:32:32-p271:32:32-p272:64:64-i64:64-i128:128-f80:128-n8:16:32:64-S128"
target triple = "x86_64-unknown-linux-gnu"

module asm ".section \22.export_symbol\22,\22a\22 ; __export_symbol_arc4_setkey: ; .asciz \22\22 ; .asciz \22\22 ; .balign 8 ; .quad arc4_setkey ; .previous"
module asm ".section \22.export_symbol\22,\22a\22 ; __export_symbol_arc4_crypt: ; .asciz \22\22 ; .asciz \22\22 ; .balign 8 ; .quad arc4_crypt ; .previous"

@__UNIQUE_ID___addressable_arc4_setkey303 = internal global ptr @arc4_setkey, section ".discard.addressable", align 8
@__UNIQUE_ID___addressable_arc4_crypt304 = internal global ptr @arc4_crypt, section ".discard.addressable", align 8
@__UNIQUE_ID_file305 = internal constant [32 x i8] c"libarc4.file=lib/crypto/libarc4\00", section ".modinfo", align 1
@__UNIQUE_ID_license306 = internal constant [20 x i8] c"libarc4.license=GPL\00", section ".modinfo", align 1
@llvm.compiler.used = appending global [4 x ptr] [ptr @__UNIQUE_ID___addressable_arc4_crypt304, ptr @__UNIQUE_ID___addressable_arc4_setkey303, ptr @__UNIQUE_ID_file305, ptr @__UNIQUE_ID_license306], section "llvm.metadata"

; Function Attrs: fn_ret_thunk_extern nofree norecurse nosync nounwind null_pointer_is_valid memory(argmem: readwrite)
define dso_local noundef i32 @arc4_setkey(ptr nocapture noundef %0, ptr nocapture noundef readonly %1, i32 noundef %2) #0 align 16 {
  %4 = getelementptr inbounds i8, ptr %0, i64 1024
  store i32 1, ptr %4, align 4
  %5 = getelementptr inbounds i8, ptr %0, i64 1028
  store i32 0, ptr %5, align 4
  br label %6

6:                                                ; preds = %6, %3
  %7 = phi i64 [ 0, %3 ], [ %10, %6 ]
  %8 = getelementptr [256 x i32], ptr %0, i64 0, i64 %7
  %9 = trunc i64 %7 to i32
  store i32 %9, ptr %8, align 4
  %10 = add nuw nsw i64 %7, 1
  %11 = icmp eq i64 %10, 256
  br i1 %11, label %12, label %6, !llvm.loop !5

12:                                               ; preds = %12, %6
  %13 = phi i64 [ %31, %12 ], [ 0, %6 ]
  %14 = phi i32 [ %30, %12 ], [ 0, %6 ]
  %15 = phi i32 [ %24, %12 ], [ 0, %6 ]
  %16 = getelementptr [256 x i32], ptr %0, i64 0, i64 %13
  %17 = load i32, ptr %16, align 4
  %18 = sext i32 %14 to i64
  %19 = getelementptr i8, ptr %1, i64 %18
  %20 = load i8, ptr %19, align 1
  %21 = add i32 %17, %15
  %22 = trunc i32 %21 to i8
  %23 = add i8 %20, %22
  %24 = zext i8 %23 to i32
  %25 = zext i8 %23 to i64
  %26 = getelementptr [256 x i32], ptr %0, i64 0, i64 %25
  %27 = load i32, ptr %26, align 4
  store i32 %27, ptr %16, align 4
  store i32 %17, ptr %26, align 4
  %28 = add i32 %14, 1
  %29 = icmp ult i32 %28, %2
  %30 = select i1 %29, i32 %28, i32 0
  %31 = add nuw nsw i64 %13, 1
  %32 = icmp eq i64 %31, 256
  br i1 %32, label %33, label %12, !llvm.loop !8

33:                                               ; preds = %12
  ret i32 0
}

; Function Attrs: fn_ret_thunk_extern nofree norecurse nosync nounwind null_pointer_is_valid memory(readwrite, inaccessiblemem: none)
define dso_local void @arc4_crypt(ptr nocapture noundef %0, ptr nocapture noundef writeonly %1, ptr nocapture noundef readonly %2, i32 noundef %3) #1 align 16 {
  %5 = icmp eq i32 %3, 0
  br i1 %5, label %55, label %6

6:                                                ; preds = %4
  %7 = getelementptr inbounds i8, ptr %0, i64 1024
  %8 = load i32, ptr %7, align 4
  %9 = getelementptr inbounds i8, ptr %0, i64 1028
  %10 = load i32, ptr %9, align 4
  %11 = zext i32 %8 to i64
  %12 = getelementptr i32, ptr %0, i64 %11
  %13 = load i32, ptr %12, align 4
  %14 = add i32 %13, %10
  %15 = and i32 %14, 255
  %16 = zext nneg i32 %15 to i64
  %17 = getelementptr i32, ptr %0, i64 %16
  %18 = load i32, ptr %17, align 4
  br label %19

19:                                               ; preds = %51, %6
  %20 = phi ptr [ %1, %6 ], [ %52, %51 ]
  %21 = phi ptr [ %2, %6 ], [ %53, %51 ]
  %22 = phi i32 [ %3, %6 ], [ %49, %51 ]
  %23 = phi i32 [ %8, %6 ], [ %34, %51 ]
  %24 = phi i32 [ %15, %6 ], [ %39, %51 ]
  %25 = phi i32 [ %13, %6 ], [ %37, %51 ]
  %26 = phi i32 [ %18, %6 ], [ %42, %51 ]
  %27 = zext nneg i32 %24 to i64
  %28 = getelementptr i32, ptr %0, i64 %27
  store i32 %25, ptr %28, align 4
  %29 = add i32 %26, %25
  %30 = and i32 %29, 255
  %31 = zext i32 %23 to i64
  %32 = getelementptr i32, ptr %0, i64 %31
  store i32 %26, ptr %32, align 4
  %33 = add i32 %23, 1
  %34 = and i32 %33, 255
  %35 = zext nneg i32 %34 to i64
  %36 = getelementptr i32, ptr %0, i64 %35
  %37 = load i32, ptr %36, align 4
  %38 = add i32 %37, %24
  %39 = and i32 %38, 255
  %40 = zext nneg i32 %39 to i64
  %41 = getelementptr i32, ptr %0, i64 %40
  %42 = load i32, ptr %41, align 4
  %43 = load i8, ptr %21, align 1
  %44 = zext nneg i32 %30 to i64
  %45 = getelementptr i32, ptr %0, i64 %44
  %46 = load i32, ptr %45, align 4
  %47 = trunc i32 %46 to i8
  %48 = xor i8 %43, %47
  store i8 %48, ptr %20, align 1
  %49 = add i32 %22, -1
  %50 = icmp eq i32 %49, 0
  br i1 %50, label %54, label %51

51:                                               ; preds = %19
  %52 = getelementptr i8, ptr %20, i64 1
  %53 = getelementptr i8, ptr %21, i64 1
  br label %19, !llvm.loop !9

54:                                               ; preds = %19
  store i32 %34, ptr %7, align 4
  store i32 %24, ptr %9, align 4
  br label %55

55:                                               ; preds = %54, %4
  ret void
}


!llvm.module.flags = !{!0, !1, !2, !3, !4}

!0 = !{i32 1, !"wchar_size", i32 2}
!1 = !{i32 8, !"cf-protection-branch", i32 1}
!2 = !{i32 4, !"function_return_thunk_extern", i32 1}
!3 = !{i32 4, !"indirect_branch_cs_prefix", i32 1}
!4 = !{i32 4, !"SkipRaxSetup", i32 1}
!5 = distinct !{!5, !6, !7}
!6 = !{!"llvm.loop.mustprogress"}
!7 = !{!"llvm.loop.unroll.disable"}
!8 = distinct !{!8, !6, !7}
!9 = distinct !{!9, !7}
